target datalayout = "e-m:e-p270:32:32-p271:32:32-p272:64:64-i64:64-i128:128-f80:128-n8:16:32:64-S128"
target triple = "x86_64-pc-linux-gnu"

%"class.std::optional" = type { %"struct.std::_Optional_base" }
%"struct.std::_Optional_base" = type { %"struct.std::_Optional_payload" }
%"struct.std::_Optional_payload" = type { %"struct.std::_Optional_payload.base", [7 x i8] }
%"struct.std::_Optional_payload.base" = type { %"struct.std::_Optional_payload_base.base" }
%"struct.std::_Optional_payload_base.base" = type <{ %"union.std::_Optional_payload_base<cvc5::internal::DeltaRational>::_Storage", i8 }>
%"union.std::_Optional_payload_base<cvc5::internal::DeltaRational>::_Storage" = type { %"class.cvc5::internal::DeltaRational" }
%"class.cvc5::internal::DeltaRational" = type { %"class.cvc5::internal::Rational", %"class.cvc5::internal::Rational" }
%"class.cvc5::internal::Rational" = type { %class.__gmp_expr }
%class.__gmp_expr = type { [1 x %struct.__mpq_struct] }
%struct.__mpq_struct = type { %struct.__mpz_struct, %struct.__mpz_struct }
%struct.__mpz_struct = type { i32, i32, ptr }
%"class.cvc5::internal::theory::arith::linear::LinearEqualityModule" = type { ptr, ptr, %"class.cvc5::internal::theory::arith::linear::BasicVarModelUpdateCallBack", %"class.cvc5::internal::theory::arith::linear::BorderHeap", %"class.cvc5::internal::theory::arith::linear::BorderHeap", %"class.std::optional", %"class.std::optional", %"class.cvc5::internal::Rational", %"class.cvc5::internal::Rational", ptr, i8, %"class.cvc5::internal::theory::arith::linear::LinearEqualityModule::TrackingCallback", %"class.cvc5::internal::theory::arith::linear::LinearEqualityModule::Statistics" }
%"class.cvc5::internal::theory::arith::linear::BasicVarModelUpdateCallBack" = type { %"class.cvc5::internal::theory::arith::linear::ArithVarCallBack", ptr }
%"class.cvc5::internal::theory::arith::linear::ArithVarCallBack" = type { ptr }
%"class.cvc5::internal::theory::arith::linear::BorderHeap" = type { i32, %"class.cvc5::internal::theory::arith::linear::BorderHeap::BorderHeapCmp", %"class.std::vector", %"class.__gnu_cxx::__normal_iterator", %"class.__gnu_cxx::__normal_iterator", i32, i32 }
%"class.cvc5::internal::theory::arith::linear::BorderHeap::BorderHeapCmp" = type { i32 }
%"class.std::vector" = type { %"struct.std::_Vector_base" }
%"struct.std::_Vector_base" = type { %"struct.std::_Vector_base<cvc5::internal::theory::arith::linear::Border, std::allocator<cvc5::internal::theory::arith::linear::Border>>::_Vector_impl" }
%"struct.std::_Vector_base<cvc5::internal::theory::arith::linear::Border, std::allocator<cvc5::internal::theory::arith::linear::Border>>::_Vector_impl" = type { %"struct.std::_Vector_base<cvc5::internal::theory::arith::linear::Border, std::allocator<cvc5::internal::theory::arith::linear::Border>>::_Vector_impl_data" }
%"struct.std::_Vector_base<cvc5::internal::theory::arith::linear::Border, std::allocator<cvc5::internal::theory::arith::linear::Border>>::_Vector_impl_data" = type { ptr, ptr, ptr }
%"class.__gnu_cxx::__normal_iterator" = type { ptr }
%"class.cvc5::internal::theory::arith::linear::LinearEqualityModule::TrackingCallback" = type { %"class.cvc5::internal::theory::arith::linear::CoefficientChangeCallback", ptr }
%"class.cvc5::internal::theory::arith::linear::CoefficientChangeCallback" = type { ptr }
%"class.cvc5::internal::theory::arith::linear::LinearEqualityModule::Statistics" = type { %"class.cvc5::internal::IntStat", %"class.cvc5::internal::IntStat", %"class.cvc5::internal::TimerStat", %"class.cvc5::internal::TimerStat", %"class.cvc5::internal::IntStat", %"class.cvc5::internal::IntStat", %"class.cvc5::internal::IntStat", %"class.cvc5::internal::TimerStat", %"class.cvc5::internal::TimerStat" }
%"class.cvc5::internal::IntStat" = type { %"class.cvc5::internal::ValueStat" }
%"class.cvc5::internal::ValueStat" = type { ptr }
%"class.cvc5::internal::TimerStat" = type { ptr }
%"class.cvc5::internal::theory::arith::linear::MatrixEntry" = type { i32, i32, i32, i32, i32, i32, %"class.cvc5::internal::Rational" }
%"class.std::vector.19" = type { %"struct.std::_Vector_base.20" }
%"struct.std::_Vector_base.20" = type { %"struct.std::_Vector_base<unsigned int, std::allocator<unsigned int>>::_Vector_impl" }
%"struct.std::_Vector_base<unsigned int, std::allocator<unsigned int>>::_Vector_impl" = type { %"struct.std::_Vector_base<unsigned int, std::allocator<unsigned int>>::_Vector_impl_data" }
%"struct.std::_Vector_base<unsigned int, std::allocator<unsigned int>>::_Vector_impl_data" = type { ptr, ptr, ptr }
%"class.cvc5::internal::theory::arith::linear::Tableau" = type { %"class.cvc5::internal::theory::arith::linear::Matrix", %"class.cvc5::internal::DenseMap.73", %"class.cvc5::internal::DenseMap.73" }
%"class.cvc5::internal::theory::arith::linear::Matrix" = type { %"class.std::vector.52", %"class.std::vector.57", %"class.cvc5::internal::DenseMap.62", i32, i32, %"class.cvc5::internal::theory::arith::linear::MatrixEntryVector", %"class.std::vector.19", %"class.cvc5::internal::Rational", %"class.cvc5::internal::theory::arith::linear::MatrixEntry" }
%"class.std::vector.52" = type { %"struct.std::_Vector_base.53" }
%"struct.std::_Vector_base.53" = type { %"struct.std::_Vector_base<cvc5::internal::theory::arith::linear::RowVector<cvc5::internal::Rational>, std::allocator<cvc5::internal::theory::arith::linear::RowVector<cvc5::internal::Rational>>>::_Vector_impl" }
%"struct.std::_Vector_base<cvc5::internal::theory::arith::linear::RowVector<cvc5::internal::Rational>, std::allocator<cvc5::internal::theory::arith::linear::RowVector<cvc5::internal::Rational>>>::_Vector_impl" = type { %"struct.std::_Vector_base<cvc5::internal::theory::arith::linear::RowVector<cvc5::internal::Rational>, std::allocator<cvc5::internal::theory::arith::linear::RowVector<cvc5::internal::Rational>>>::_Vector_impl_data" }
%"struct.std::_Vector_base<cvc5::internal::theory::arith::linear::RowVector<cvc5::internal::Rational>, std::allocator<cvc5::internal::theory::arith::linear::RowVector<cvc5::internal::Rational>>>::_Vector_impl_data" = type { ptr, ptr, ptr }
%"class.std::vector.57" = type { %"struct.std::_Vector_base.58" }
%"struct.std::_Vector_base.58" = type { %"struct.std::_Vector_base<cvc5::internal::theory::arith::linear::ColumnVector<cvc5::internal::Rational>, std::allocator<cvc5::internal::theory::arith::linear::ColumnVector<cvc5::internal::Rational>>>::_Vector_impl" }
%"struct.std::_Vector_base<cvc5::internal::theory::arith::linear::ColumnVector<cvc5::internal::Rational>, std::allocator<cvc5::internal::theory::arith::linear::ColumnVector<cvc5::internal::Rational>>>::_Vector_impl" = type { %"struct.std::_Vector_base<cvc5::internal::theory::arith::linear::ColumnVector<cvc5::internal::Rational>, std::allocator<cvc5::internal::theory::arith::linear::ColumnVector<cvc5::internal::Rational>>>::_Vector_impl_data" }
%"struct.std::_Vector_base<cvc5::internal::theory::arith::linear::ColumnVector<cvc5::internal::Rational>, std::allocator<cvc5::internal::theory::arith::linear::ColumnVector<cvc5::internal::Rational>>>::_Vector_impl_data" = type { ptr, ptr, ptr }
%"class.cvc5::internal::DenseMap.62" = type { %"class.std::vector.19", %"class.std::vector.19", %"class.std::vector.63" }
%"class.std::vector.63" = type { %"struct.std::_Vector_base.64" }
%"struct.std::_Vector_base.64" = type { %"struct.std::_Vector_base<std::pair<unsigned int, bool>, std::allocator<std::pair<unsigned int, bool>>>::_Vector_impl" }
%"struct.std::_Vector_base<std::pair<unsigned int, bool>, std::allocator<std::pair<unsigned int, bool>>>::_Vector_impl" = type { %"struct.std::_Vector_base<std::pair<unsigned int, bool>, std::allocator<std::pair<unsigned int, bool>>>::_Vector_impl_data" }
%"struct.std::_Vector_base<std::pair<unsigned int, bool>, std::allocator<std::pair<unsigned int, bool>>>::_Vector_impl_data" = type { ptr, ptr, ptr }
%"class.cvc5::internal::theory::arith::linear::MatrixEntryVector" = type <{ %"class.std::vector.68", %"class.std::queue", i32, [4 x i8] }>
%"class.std::vector.68" = type { %"struct.std::_Vector_base.69" }
%"struct.std::_Vector_base.69" = type { %"struct.std::_Vector_base<cvc5::internal::theory::arith::linear::MatrixEntry<cvc5::internal::Rational>, std::allocator<cvc5::internal::theory::arith::linear::MatrixEntry<cvc5::internal::Rational>>>::_Vector_impl" }
%"struct.std::_Vector_base<cvc5::internal::theory::arith::linear::MatrixEntry<cvc5::internal::Rational>, std::allocator<cvc5::internal::theory::arith::linear::MatrixEntry<cvc5::internal::Rational>>>::_Vector_impl" = type { %"struct.std::_Vector_base<cvc5::internal::theory::arith::linear::MatrixEntry<cvc5::internal::Rational>, std::allocator<cvc5::internal::theory::arith::linear::MatrixEntry<cvc5::internal::Rational>>>::_Vector_impl_data" }
%"struct.std::_Vector_base<cvc5::internal::theory::arith::linear::MatrixEntry<cvc5::internal::Rational>, std::allocator<cvc5::internal::theory::arith::linear::MatrixEntry<cvc5::internal::Rational>>>::_Vector_impl_data" = type { ptr, ptr, ptr }
%"class.std::queue" = type { %"class.std::deque" }
%"class.std::deque" = type { %"class.std::_Deque_base" }
%"class.std::_Deque_base" = type { %"struct.std::_Deque_base<unsigned int, std::allocator<unsigned int>>::_Deque_impl" }
%"struct.std::_Deque_base<unsigned int, std::allocator<unsigned int>>::_Deque_impl" = type { %"struct.std::_Deque_base<unsigned int, std::allocator<unsigned int>>::_Deque_impl_data" }
%"struct.std::_Deque_base<unsigned int, std::allocator<unsigned int>>::_Deque_impl_data" = type { ptr, i64, %"struct.std::_Deque_iterator", %"struct.std::_Deque_iterator" }
%"struct.std::_Deque_iterator" = type { ptr, ptr, ptr, ptr }
%"class.cvc5::internal::DenseMap.73" = type { %"class.std::vector.19", %"class.std::vector.19", %"class.std::vector.19" }

; Function Attrs: mustprogress nounwind uwtable
define linkonce_odr hidden noundef nonnull align 4 dereferenceable(4) ptr @_ZNKSt6vectorIjSaIjEEixEm(ptr noundef nonnull align 8 dereferenceable(24) %0, i64 noundef %1) #6 comdat align 2 {
  %3 = alloca ptr, align 8
  %4 = alloca i64, align 8
  store ptr %0, ptr %3, align 8, !tbaa !263
  store i64 %1, ptr %4, align 8, !tbaa !159
  %5 = load ptr, ptr %3, align 8
  %6 = getelementptr inbounds nuw %"struct.std::_Vector_base.20", ptr %5, i32 0, i32 0
  %7 = getelementptr inbounds nuw %"struct.std::_Vector_base<unsigned int, std::allocator<unsigned int>>::_Vector_impl_data", ptr %6, i32 0, i32 0
  %8 = load ptr, ptr %7, align 8, !tbaa !361
  %9 = load i64, ptr %4, align 8, !tbaa !159
  %10 = getelementptr inbounds nuw i32, ptr %8, i64 %9
  ret ptr %10
}

; Function Attrs: mustprogress nounwind uwtable
define linkonce_odr hidden noundef nonnull align 4 dereferenceable(4) ptr @_ZNK4cvc58internal8DenseMapIjEixEj(ptr noundef nonnull align 8 dereferenceable(72) %0, i32 noundef %1) #6 comdat align 2 {
  %3 = alloca ptr, align 8
  %4 = alloca i32, align 4
  store ptr %0, ptr %3, align 8, !tbaa !359
  store i32 %1, ptr %4, align 4, !tbaa !59
  %5 = load ptr, ptr %3, align 8
  %6 = getelementptr inbounds nuw %"class.cvc5::internal::DenseMap.73", ptr %5, i32 0, i32 2
  %7 = load i32, ptr %4, align 4, !tbaa !59
  %8 = zext i32 %7 to i64
  %9 = call noundef nonnull align 4 dereferenceable(4) ptr @_ZNKSt6vectorIjSaIjEEixEm(ptr noundef nonnull align 8 dereferenceable(24) %6, i64 noundef %8) #3
  ret ptr %9
}

; Function Attrs: mustprogress nounwind uwtable
define linkonce_odr hidden noundef i32 @_ZNK4cvc58internal6theory5arith6linear7Tableau15basicToRowIndexEj(ptr noundef nonnull align 8 dereferenceable(496) %0, i32 noundef %1) #6 comdat align 2 {
  %3 = alloca ptr, align 8
  %4 = alloca i32, align 4
  store ptr %0, ptr %3, align 8, !tbaa !89
  store i32 %1, ptr %4, align 4, !tbaa !59
  %5 = load ptr, ptr %3, align 8
  %6 = getelementptr inbounds nuw %"class.cvc5::internal::theory::arith::linear::Tableau", ptr %5, i32 0, i32 1
  %7 = load i32, ptr %4, align 4, !tbaa !59
  %8 = call noundef nonnull align 4 dereferenceable(4) ptr @_ZNK4cvc58internal8DenseMapIjEixEj(ptr noundef nonnull align 8 dereferenceable(72) %6, i32 noundef %7)
  %9 = load i32, ptr %8, align 4, !tbaa !59
  ret i32 %9
}

; Function Attrs: mustprogress uwtable
define linkonce_odr hidden void @_ZN4cvc58internal6theory5arith6linear7Tableau24directlyAddToCoefficientEjjRKNS0_8RationalERNS3_25CoefficientChangeCallbackE(ptr noundef nonnull align 8 dereferenceable(496) %0, i32 noundef %1, i32 noundef %2, ptr noundef nonnull align 8 dereferenceable(32) %3, ptr noundef nonnull align 8 dereferenceable(8) %4) #4 comdat align 2 {
  %6 = alloca ptr, align 8
  %7 = alloca i32, align 4
  %8 = alloca i32, align 4
  %9 = alloca ptr, align 8
  %10 = alloca ptr, align 8
  %11 = alloca i32, align 4
  store ptr %0, ptr %6, align 8, !tbaa !89
  store i32 %1, ptr %7, align 4, !tbaa !59
  store i32 %2, ptr %8, align 4, !tbaa !59
  store ptr %3, ptr %9, align 8, !tbaa !103
  store ptr %4, ptr %10, align 8, !tbaa !108
  %12 = load ptr, ptr %6, align 8
  call void @llvm.lifetime.start.p0(i64 4, ptr %11) #3
  %13 = load i32, ptr %7, align 4, !tbaa !59
  %14 = call noundef i32 @_ZNK4cvc58internal6theory5arith6linear7Tableau15basicToRowIndexEj(ptr noundef nonnull align 8 dereferenceable(496) %12, i32 noundef %13)
  store i32 %14, ptr %11, align 4, !tbaa !59
  %15 = load i32, ptr %11, align 4, !tbaa !59
  %16 = load i32, ptr %8, align 4, !tbaa !59
  %17 = load ptr, ptr %9, align 8, !tbaa !103
  %18 = load ptr, ptr %10, align 8, !tbaa !108
  call void @_ZN4cvc58internal6theory5arith6linear6MatrixINS0_8RationalEE18manipulateRowEntryEjjRKS5_RNS3_25CoefficientChangeCallbackE(ptr noundef nonnull align 8 dereferenceable(352) %12, i32 noundef %15, i32 noundef %16, ptr noundef nonnull align 8 dereferenceable(32) %17, ptr noundef nonnull align 8 dereferenceable(8) %18)
  call void @llvm.lifetime.end.p0(i64 4, ptr %11) #3
  ret void
}

; Function Attrs: mustprogress uwtable
define hidden void @_ZN4cvc58internal6theory5arith6linear20LinearEqualityModule24directlyAddToCoefficientEjjRKNS0_8RationalE(ptr noundef nonnull align 8 dereferenceable(456) %0, i32 noundef %1, i32 noundef %2, ptr noundef nonnull align 8 dereferenceable(32) %3) #4 align 2 {
  %5 = alloca ptr, align 8
  %6 = alloca i32, align 4
  %7 = alloca i32, align 4
  %8 = alloca ptr, align 8
  store ptr %0, ptr %5, align 8, !tbaa !3
  store i32 %1, ptr %6, align 4, !tbaa !59
  store i32 %2, ptr %7, align 4, !tbaa !59
  store ptr %3, ptr %8, align 8, !tbaa !103
  %9 = load ptr, ptr %5, align 8
  %10 = getelementptr inbounds nuw %"class.cvc5::internal::theory::arith::linear::LinearEqualityModule", ptr %9, i32 0, i32 1
  %11 = load ptr, ptr %10, align 8, !tbaa !122
  %12 = load i32, ptr %6, align 4, !tbaa !59
  %13 = load i32, ptr %7, align 4, !tbaa !59
  %14 = load ptr, ptr %8, align 8, !tbaa !103
  %15 = getelementptr inbounds nuw %"class.cvc5::internal::theory::arith::linear::LinearEqualityModule", ptr %9, i32 0, i32 11
  call void @_ZN4cvc58internal6theory5arith6linear7Tableau24directlyAddToCoefficientEjjRKNS0_8RationalERNS3_25CoefficientChangeCallbackE(ptr noundef nonnull align 8 dereferenceable(496) %11, i32 noundef %12, i32 noundef %13, ptr noundef nonnull align 8 dereferenceable(32) %14, ptr noundef nonnull align 8 dereferenceable(8) %15)
  ret void
}