; Function Attrs: mustprogress uwtable
define hidden void @_ZN4cvc58internal6theory5arith6linear20LinearEqualityModule24directlyAddToCoefficientEjjRKNS0_8RationalE(ptr noundef nonnull align 8 dereferenceable(456) %0, i32 noundef %1, i32 noundef %2, ptr noundef nonnull align 8 dereferenceable(32) %3) local_unnamed_addr #3 align 2 {
  %5 = getelementptr inbounds nuw i8, ptr %0, i64 8
  %6 = load ptr, ptr %5, align 8, !tbaa !106
  %7 = getelementptr inbounds nuw i8, ptr %0, i64 368
  %8 = getelementptr inbounds nuw i8, ptr %6, i64 400
  %9 = zext i32 %1 to i64
  %10 = load ptr, ptr %8, align 8, !tbaa !129
  %11 = getelementptr inbounds nuw i32, ptr %10, i64 %9
  %12 = load i32, ptr %11, align 4, !tbaa !28
  tail call void @_ZN4cvc58internal6theory5arith6linear6MatrixINS0_8RationalEE18manipulateRowEntryEjjRKS5_RNS3_25CoefficientChangeCallbackE(ptr noundef nonnull align 8 dereferenceable(496) %6, i32 noundef %12, i32 noundef %2, ptr noundef nonnull align 8 dereferenceable(32) %3, ptr noundef nonnull align 8 dereferenceable(8) %7)
  ret void
}